; Function Attrs: nounwind uwtable
define noalias nonnull ptr @l_List_forM___at_Lean_Elab_Command_elabPrintAxioms___spec__2(ptr noundef %0, ptr noundef %1, ptr noundef %2, ptr noundef %3) local_unnamed_addr #0 {
  %5 = ptrtoint ptr %1 to i64
  %6 = and i64 %5, 1
  %.not46 = icmp eq i64 %6, 0
  br label %lean_dec.exit

lean_dec.exit:                                    ; preds = %lean_dec.exit.backedge, %4
  %.022 = phi ptr [ %3, %4 ], [ %66, %lean_dec.exit.backedge ]
  %.0 = phi ptr [ %0, %4 ], [ %42, %lean_dec.exit.backedge ]
  %7 = ptrtoint ptr %.0 to i64
  %8 = and i64 %7, 1
  %.not.i32 = icmp eq i64 %8, 0
  br i1 %.not.i32, label %12, label %9

9:                                                ; preds = %lean_dec.exit
  %10 = lshr i64 %7, 1
  %11 = trunc i64 %10 to i32
  br label %lean_obj_tag.exit

12:                                               ; preds = %lean_dec.exit
  %13 = getelementptr i8, ptr %.0, i64 4
  %.val.i = load i32, ptr %13, align 4
  %14 = lshr i32 %.val.i, 24
  br label %lean_obj_tag.exit

lean_obj_tag.exit:                                ; preds = %9, %12
  %.0.i = phi i32 [ %11, %9 ], [ %14, %12 ]
  %15 = icmp eq i32 %.0.i, 0
  br i1 %15, label %16, label %30

16:                                               ; preds = %lean_obj_tag.exit
  br i1 %.not46, label %17, label %lean_dec.exit24

17:                                               ; preds = %16
  %18 = load i32, ptr %1, align 4, !tbaa !8
  %19 = icmp sgt i32 %18, 1
  br i1 %19, label %20, label %22, !prof !13

20:                                               ; preds = %17
  %21 = add nsw i32 %18, -1
  store i32 %21, ptr %1, align 4, !tbaa !8
  br label %lean_dec.exit24

22:                                               ; preds = %17
  %.not.i = icmp eq i32 %18, 0
  br i1 %.not.i, label %lean_dec.exit24, label %23

23:                                               ; preds = %22
  tail call void @lean_dec_ref_cold(ptr noundef nonnull %1) #5
  br label %lean_dec.exit24

lean_dec.exit24:                                  ; preds = %23, %22, %20, %16
  tail call void @lean_inc_heartbeat() #5
  %24 = tail call noalias ptr @mi_malloc_small(i64 noundef 24) #5
  %25 = icmp eq ptr %24, null
  br i1 %25, label %26, label %lean_alloc_ctor.exit

26:                                               ; preds = %lean_dec.exit24
  tail call void @lean_internal_panic_out_of_memory() #6
  unreachable

lean_alloc_ctor.exit:                             ; preds = %lean_dec.exit24
  %27 = getelementptr inbounds nuw i8, ptr %24, i64 4
  store i32 1, ptr %24, align 4, !tbaa !8
  store i32 131096, ptr %27, align 4
  %28 = getelementptr inbounds nuw i8, ptr %24, i64 8
  store ptr inttoptr (i64 1 to ptr), ptr %28, align 8, !tbaa !4
  %29 = getelementptr inbounds nuw i8, ptr %24, i64 16
  store ptr %.022, ptr %29, align 8, !tbaa !4
  ret ptr %24

30:                                               ; preds = %lean_obj_tag.exit
  %31 = getelementptr inbounds nuw i8, ptr %.0, i64 8
  %32 = load ptr, ptr %31, align 8, !tbaa !4
  %33 = ptrtoint ptr %32 to i64
  %34 = and i64 %33, 1
  %.not = icmp eq i64 %34, 0
  br i1 %.not, label %35, label %lean_inc.exit27

35:                                               ; preds = %30
  %.val.i33 = load i32, ptr %32, align 4, !tbaa !8
  %36 = icmp sgt i32 %.val.i33, 0
  br i1 %36, label %37, label %39, !prof !13

37:                                               ; preds = %35
  %38 = add nuw i32 %.val.i33, 1
  store i32 %38, ptr %32, align 4, !tbaa !8
  br label %lean_inc.exit27

39:                                               ; preds = %35
  %.not.i34 = icmp eq i32 %.val.i33, 0
  br i1 %.not.i34, label %lean_inc.exit27, label %40

40:                                               ; preds = %39
  tail call void @lean_inc_ref_cold(ptr noundef nonnull %32) #5
  br label %lean_inc.exit27

lean_inc.exit27:                                  ; preds = %40, %39, %37, %30
  %41 = getelementptr inbounds nuw i8, ptr %.0, i64 16
  %42 = load ptr, ptr %41, align 8, !tbaa !4
  %43 = ptrtoint ptr %42 to i64
  %44 = and i64 %43, 1
  %.not44 = icmp eq i64 %44, 0
  br i1 %.not44, label %45, label %lean_inc.exit26

45:                                               ; preds = %lean_inc.exit27
  %.val.i35 = load i32, ptr %42, align 4, !tbaa !8
  %46 = icmp sgt i32 %.val.i35, 0
  br i1 %46, label %47, label %49, !prof !13

47:                                               ; preds = %45
  %48 = add nuw i32 %.val.i35, 1
  store i32 %48, ptr %42, align 4, !tbaa !8
  br label %lean_inc.exit26

49:                                               ; preds = %45
  %.not.i36 = icmp eq i32 %.val.i35, 0
  br i1 %.not.i36, label %lean_inc.exit26, label %50

50:                                               ; preds = %49
  tail call void @lean_inc_ref_cold(ptr noundef nonnull %42) #5
  br label %lean_inc.exit26

lean_inc.exit26:                                  ; preds = %50, %49, %47, %lean_inc.exit27
  br i1 %.not.i32, label %51, label %lean_dec.exit23

51:                                               ; preds = %lean_inc.exit26
  %52 = load i32, ptr %.0, align 4, !tbaa !8
  %53 = icmp sgt i32 %52, 1
  br i1 %53, label %54, label %56, !prof !13

54:                                               ; preds = %51
  %55 = add nsw i32 %52, -1
  store i32 %55, ptr %.0, align 4, !tbaa !8
  br label %lean_dec.exit23

56:                                               ; preds = %51
  %.not.i28 = icmp eq i32 %52, 0
  br i1 %.not.i28, label %lean_dec.exit23, label %57

57:                                               ; preds = %56
  tail call void @lean_dec_ref_cold(ptr noundef nonnull %.0) #5
  br label %lean_dec.exit23

lean_dec.exit23:                                  ; preds = %57, %56, %54, %lean_inc.exit26
  br i1 %.not46, label %58, label %lean_inc.exit25

58:                                               ; preds = %lean_dec.exit23
  %.val.i38 = load i32, ptr %1, align 4, !tbaa !8
  %59 = icmp sgt i32 %.val.i38, 0
  br i1 %59, label %60, label %62, !prof !13

60:                                               ; preds = %58
  %61 = add nuw i32 %.val.i38, 1
  store i32 %61, ptr %1, align 4, !tbaa !8
  br label %lean_inc.exit25

62:                                               ; preds = %58
  %.not.i39 = icmp eq i32 %.val.i38, 0
  br i1 %.not.i39, label %lean_inc.exit25, label %63

63:                                               ; preds = %62
  tail call void @lean_inc_ref_cold(ptr noundef nonnull %1) #5
  br label %lean_inc.exit25

lean_inc.exit25:                                  ; preds = %63, %62, %60, %lean_dec.exit23
  %64 = tail call ptr @l___private_Lean_Elab_Print_0__Lean_Elab_Command_printAxiomsOf(ptr noundef %32, ptr noundef %1, ptr noundef %2, ptr noundef %.022)
  %65 = getelementptr inbounds nuw i8, ptr %64, i64 16
  %66 = load ptr, ptr %65, align 8, !tbaa !4
  %67 = ptrtoint ptr %66 to i64
  %68 = and i64 %67, 1
  %.not47 = icmp eq i64 %68, 0
  br i1 %.not47, label %69, label %lean_inc.exit

69:                                               ; preds = %lean_inc.exit25
  %.val.i41 = load i32, ptr %66, align 4, !tbaa !8
  %70 = icmp sgt i32 %.val.i41, 0
  br i1 %70, label %71, label %73, !prof !13

71:                                               ; preds = %69
  %72 = add nuw i32 %.val.i41, 1
  store i32 %72, ptr %66, align 4, !tbaa !8
  br label %lean_inc.exit

73:                                               ; preds = %69
  %.not.i42 = icmp eq i32 %.val.i41, 0
  br i1 %.not.i42, label %lean_inc.exit, label %74

74:                                               ; preds = %73
  tail call void @lean_inc_ref_cold(ptr noundef nonnull %66) #5
  br label %lean_inc.exit

lean_inc.exit:                                    ; preds = %74, %73, %71, %lean_inc.exit25
  %75 = ptrtoint ptr %64 to i64
  %76 = and i64 %75, 1
  %.not48 = icmp eq i64 %76, 0
  br i1 %.not48, label %77, label %lean_dec.exit.backedge

77:                                               ; preds = %lean_inc.exit
  %78 = load i32, ptr %64, align 4, !tbaa !8
  %79 = icmp sgt i32 %78, 1
  br i1 %79, label %80, label %82, !prof !13

80:                                               ; preds = %77
  %81 = add nsw i32 %78, -1
  store i32 %81, ptr %64, align 4, !tbaa !8
  br label %lean_dec.exit.backedge

82:                                               ; preds = %77
  %.not.i30 = icmp eq i32 %78, 0
  br i1 %.not.i30, label %lean_dec.exit.backedge, label %83

83:                                               ; preds = %82
  tail call void @lean_dec_ref_cold(ptr noundef nonnull %64) #5
  br label %lean_dec.exit.backedge

lean_dec.exit.backedge:                           ; preds = %83, %82, %80, %lean_inc.exit
  br label %lean_dec.exit
}